target datalayout = "e-m:e-p270:32:32-p271:32:32-p272:64:64-i64:64-i128:128-f80:128-n8:16:32:64-S128"
target triple = "x86_64-pc-linux-gnu"

%struct.URLContext = type { ptr, ptr, ptr, ptr, i32, i32, i32, i32, %struct.AVIOInterruptCB, i64, ptr, ptr, i32 }
%struct.AVIOInterruptCB = type { ptr, ptr }
%struct.SRTPProtoContext = type { ptr, ptr, ptr, ptr, ptr, ptr, %struct.SRTPContext, %struct.SRTPContext, [8192 x i8] }
%struct.SRTPContext = type { ptr, ptr, i32, i32, [16 x i8], [14 x i8], [16 x i8], [16 x i8], [14 x i8], [14 x i8], [20 x i8], [20 x i8], i32, i32, i32, i32 }

; Function Attrs: nounwind uwtable
define internal i32 @srtp_close(ptr noundef %0) #0 {
  %2 = alloca ptr, align 8
  %3 = alloca ptr, align 8
  store ptr %0, ptr %2, align 8, !tbaa !4
  call void @llvm.lifetime.start.p0(i64 8, ptr %3) #4
  %4 = load ptr, ptr %2, align 8, !tbaa !4
  %5 = getelementptr inbounds nuw %struct.URLContext, ptr %4, i32 0, i32 2
  %6 = load ptr, ptr %5, align 8, !tbaa !16
  store ptr %6, ptr %3, align 8, !tbaa !22
  %7 = load ptr, ptr %3, align 8, !tbaa !22
  %8 = getelementptr inbounds nuw %struct.SRTPProtoContext, ptr %7, i32 0, i32 6
  call void @ff_srtp_free(ptr noundef %8)
  %9 = load ptr, ptr %3, align 8, !tbaa !22
  %10 = getelementptr inbounds nuw %struct.SRTPProtoContext, ptr %9, i32 0, i32 7
  call void @ff_srtp_free(ptr noundef %10)
  %11 = load ptr, ptr %3, align 8, !tbaa !22
  %12 = getelementptr inbounds nuw %struct.SRTPProtoContext, ptr %11, i32 0, i32 1
  %13 = call i32 @ffurl_closep(ptr noundef %12)
  call void @llvm.lifetime.end.p0(i64 8, ptr %3) #4
  ret i32 0
}