; Function Attrs: nounwind uwtable
define internal noundef i32 @srtp_close(ptr noundef readonly captures(none) %0) #0 {
  %2 = getelementptr inbounds nuw i8, ptr %0, i64 16
  %3 = load ptr, ptr %2, align 8, !tbaa !4
  %4 = getelementptr inbounds nuw i8, ptr %3, i64 48
  tail call void @ff_srtp_free(ptr noundef nonnull %4) #4
  %5 = getelementptr inbounds nuw i8, ptr %3, i64 224
  tail call void @ff_srtp_free(ptr noundef nonnull %5) #4
  %6 = getelementptr inbounds nuw i8, ptr %3, i64 8
  %7 = tail call i32 @ffurl_closep(ptr noundef nonnull %6) #4
  ret i32 0
}